; Function Attrs: nounwind uwtable
define internal noalias ptr @msblob2dsa_newctx(ptr noundef %0) #0 {
  %2 = tail call noalias ptr @CRYPTO_zalloc(i64 noundef 24, ptr noundef nonnull @.str, i32 noundef 66) #6
  %.not.i = icmp eq ptr %2, null
  br i1 %.not.i, label %msblob2key_newctx.exit, label %3

3:                                                ; preds = %1
  store ptr %0, ptr %2, align 8, !tbaa !3
  %4 = getelementptr inbounds nuw i8, ptr %2, i64 8
  store ptr @mstype2dsa_desc, ptr %4, align 8, !tbaa !11
  br label %msblob2key_newctx.exit

msblob2key_newctx.exit:                           ; preds = %1, %3
  ret ptr %2
}